; Function Attrs: mustprogress nofree norecurse nosync nounwind willreturn memory(readwrite, inaccessiblemem: none) uwtable
define hidden void @_ZN12GraphBuilder9pop_scopeEv(ptr nocapture noundef nonnull align 8 dereferenceable(97) %0) local_unnamed_addr #3 align 2 {
  %2 = load ptr, ptr %0, align 8
  %3 = getelementptr inbounds i8, ptr %2, i64 16
  %4 = load ptr, ptr %3, align 8
  %5 = getelementptr inbounds i8, ptr %4, i64 64
  %6 = load i32, ptr %5, align 8
  %7 = load ptr, ptr %2, align 8
  store ptr %7, ptr %0, align 8
  %8 = getelementptr inbounds i8, ptr %7, i64 16
  %9 = load ptr, ptr %8, align 8
  %10 = getelementptr inbounds i8, ptr %9, i64 64
  %11 = load i32, ptr %10, align 8
  %12 = icmp slt i32 %11, %6
  br i1 %12, label %13, label %_ZN7IRScope23set_min_number_of_locksEi.exit

13:                                               ; preds = %1
  store i32 %6, ptr %10, align 8
  br label %_ZN7IRScope23set_min_number_of_locksEi.exit

_ZN7IRScope23set_min_number_of_locksEi.exit:      ; preds = %1, %13
  ret void
}